target datalayout = "e-m:e-p270:32:32-p271:32:32-p272:64:64-i64:64-i128:128-f80:128-n8:16:32:64-S128"
target triple = "x86_64-unknown-linux-gnu"

%"class.hermes::vm::CompressedPointer" = type { %"class.hermes::vm::BasedPointer" }
%"class.hermes::vm::BasedPointer" = type { i32 }
%"class.std::function.17" = type { %"class.std::_Function_base", ptr }
%"class.std::_Function_base" = type { %"union.std::_Any_data", ptr }
%"union.std::_Any_data" = type { %"union.std::_Nocopy_types" }
%"union.std::_Nocopy_types" = type { { i64, i64 } }
%"class.hermes::vm::GCBase" = type <{ ptr, i32, [4 x i8], i64, %"class.hermes::vm::GCExecTrace", [7 x i8], ptr, ptr, %"class.std::shared_ptr", i32, [4 x i8], %"class.std::function", %"class.std::vector", i8, i8, i8, i8, [4 x i8], %"class.std::chrono::time_point", %"class.std::chrono::duration.0", i64, i64, %"struct.hermes::vm::GCBase::CumulativeHeapStats", %"class.std::__cxx11::basic_string", %"class.std::deque", ptr, %"class.std::recursive_mutex", %"class.hermes::vm::GCBase::IDTracker", [3 x i64], %"class.std::function.17", i32, i8, [3 x i8] }>
%"class.hermes::vm::GCExecTrace" = type { i8 }
%"class.std::shared_ptr" = type { %"class.std::__shared_ptr" }
%"class.std::__shared_ptr" = type { ptr, %"class.std::__shared_count" }
%"class.std::__shared_count" = type { ptr }
%"class.std::function" = type { %"class.std::_Function_base", ptr }
%"class.std::vector" = type { %"struct.std::_Vector_base" }
%"struct.std::_Vector_base" = type { %"struct.std::_Vector_base<hermes::vm::GCAnalyticsEvent, std::allocator<hermes::vm::GCAnalyticsEvent>>::_Vector_impl" }
%"struct.std::_Vector_base<hermes::vm::GCAnalyticsEvent, std::allocator<hermes::vm::GCAnalyticsEvent>>::_Vector_impl" = type { %"struct.std::_Vector_base<hermes::vm::GCAnalyticsEvent, std::allocator<hermes::vm::GCAnalyticsEvent>>::_Vector_impl_data" }
%"struct.std::_Vector_base<hermes::vm::GCAnalyticsEvent, std::allocator<hermes::vm::GCAnalyticsEvent>>::_Vector_impl_data" = type { ptr, ptr, ptr }
%"class.std::chrono::time_point" = type { %"class.std::chrono::duration" }
%"class.std::chrono::duration" = type { i64 }
%"class.std::chrono::duration.0" = type { i64 }
%"struct.hermes::vm::GCBase::CumulativeHeapStats" = type { i32, %"class.hermes::StatsAccumulator", %"class.hermes::StatsAccumulator", i32, %"class.hermes::StatsAccumulator.1", %"class.hermes::StatsAccumulator.1" }
%"class.hermes::StatsAccumulator" = type { i32, double, double, double, double }
%"class.hermes::StatsAccumulator.1" = type { i32, i64, i32, i32, double }
%"class.std::__cxx11::basic_string" = type { %"struct.std::__cxx11::basic_string<char>::_Alloc_hider", i64, %union.anon }
%"struct.std::__cxx11::basic_string<char>::_Alloc_hider" = type { ptr }
%union.anon = type { i64, [8 x i8] }
%"class.std::deque" = type { %"class.std::_Deque_base" }
%"class.std::_Deque_base" = type { %"struct.std::_Deque_base<hermes::vm::WeakRefSlot, std::allocator<hermes::vm::WeakRefSlot>>::_Deque_impl" }
%"struct.std::_Deque_base<hermes::vm::WeakRefSlot, std::allocator<hermes::vm::WeakRefSlot>>::_Deque_impl" = type { %"struct.std::_Deque_base<hermes::vm::WeakRefSlot, std::allocator<hermes::vm::WeakRefSlot>>::_Deque_impl_data" }
%"struct.std::_Deque_base<hermes::vm::WeakRefSlot, std::allocator<hermes::vm::WeakRefSlot>>::_Deque_impl_data" = type { ptr, i64, %"struct.std::_Deque_iterator", %"struct.std::_Deque_iterator" }
%"struct.std::_Deque_iterator" = type { ptr, ptr, ptr, ptr }
%"class.std::recursive_mutex" = type { %"class.std::__recursive_mutex_base" }
%"class.std::__recursive_mutex_base" = type { %union.pthread_mutex_t }
%union.pthread_mutex_t = type { %struct.__pthread_mutex_s }
%struct.__pthread_mutex_s = type { i32, i32, i32, i32, i32, i16, i16, %struct.__pthread_internal_list }
%struct.__pthread_internal_list = type { ptr, ptr }
%"class.hermes::vm::GCBase::IDTracker" = type { %"class.std::recursive_mutex", i32, [4 x i8], %"class.llvh::DenseMap", %"class.llvh::DenseMap", %"class.llvh::DenseMap.8", %"class.llvh::DenseMap.11", %"class.llvh::DenseMap", %"class.llvh::DenseMap.14" }
%"class.llvh::DenseMap.8" = type <{ ptr, i32, i32, i32, [4 x i8] }>
%"class.llvh::DenseMap.11" = type <{ ptr, i32, i32, i32, [4 x i8] }>
%"class.llvh::DenseMap" = type <{ ptr, i32, i32, i32, [4 x i8] }>
%"class.llvh::DenseMap.14" = type <{ ptr, i32, i32, i32, [4 x i8] }>

; Function Attrs: mustprogress nounwind uwtable
define linkonce_odr hidden void @_ZN6hermes2vm12BasedPointerC2Ej(ptr noundef nonnull align 4 dereferenceable(4) %this, i32 noundef %raw) unnamed_addr #0 comdat align 2 {
entry:
  %this.addr = alloca ptr, align 8
  %raw.addr = alloca i32, align 4
  store ptr %this, ptr %this.addr, align 8
  store i32 %raw, ptr %raw.addr, align 4
  %this1 = load ptr, ptr %this.addr, align 8
  %raw_ = getelementptr inbounds %"class.hermes::vm::BasedPointer", ptr %this1, i32 0, i32 0
  %0 = load i32, ptr %raw.addr, align 4
  store i32 %0, ptr %raw_, align 4
  ret void
}

; Function Attrs: mustprogress nounwind uwtable
define linkonce_odr hidden i32 @_ZNK6hermes2vm11PointerBase21pointerToBasedNonNullEPKv(ptr noundef nonnull align 1 dereferenceable(1) %this, ptr noundef %ptr) #0 comdat align 2 {
entry:
  %retval = alloca %"class.hermes::vm::BasedPointer", align 4
  %this.addr = alloca ptr, align 8
  %ptr.addr = alloca ptr, align 8
  %offset = alloca i64, align 8
  store ptr %this, ptr %this.addr, align 8
  store ptr %ptr, ptr %ptr.addr, align 8
  %this1 = load ptr, ptr %this.addr, align 8
  %0 = load ptr, ptr %ptr.addr, align 8
  %1 = ptrtoint ptr %0 to i64
  %2 = ptrtoint ptr %this1 to i64
  %sub = sub i64 %1, %2
  store i64 %sub, ptr %offset, align 8
  %3 = load i64, ptr %offset, align 8
  %conv = trunc i64 %3 to i32
  call void @_ZN6hermes2vm12BasedPointerC2Ej(ptr noundef nonnull align 4 dereferenceable(4) %retval, i32 noundef %conv)
  %coerce.dive = getelementptr inbounds %"class.hermes::vm::BasedPointer", ptr %retval, i32 0, i32 0
  %4 = load i32, ptr %coerce.dive, align 4
  ret i32 %4
}

; Function Attrs: mustprogress nounwind uwtable
define linkonce_odr hidden void @_ZN6hermes2vm17CompressedPointerC2ENS0_12BasedPointerE(ptr noundef nonnull align 4 dereferenceable(4) %this, i32 %s.coerce) unnamed_addr #0 comdat align 2 {
entry:
  %s = alloca %"class.hermes::vm::BasedPointer", align 4
  %this.addr = alloca ptr, align 8
  %coerce.dive = getelementptr inbounds %"class.hermes::vm::BasedPointer", ptr %s, i32 0, i32 0
  store i32 %s.coerce, ptr %coerce.dive, align 4
  store ptr %this, ptr %this.addr, align 8
  %this1 = load ptr, ptr %this.addr, align 8
  %ptr_ = getelementptr inbounds %"class.hermes::vm::CompressedPointer", ptr %this1, i32 0, i32 0
  call void @llvm.memcpy.p0.p0.i64(ptr align 4 %ptr_, ptr align 4 %s, i64 4, i1 false)
  ret void
}

; Function Attrs: mustprogress nounwind uwtable
define linkonce_odr hidden i32 @_ZN6hermes2vm17CompressedPointer27pointerToStorageTypeNonNullEPNS0_6GCCellERNS0_11PointerBaseE(ptr noundef %ptr, ptr noundef nonnull align 1 dereferenceable(1) %base) #0 comdat align 2 {
entry:
  %retval = alloca %"class.hermes::vm::BasedPointer", align 4
  %ptr.addr = alloca ptr, align 8
  %base.addr = alloca ptr, align 8
  store ptr %ptr, ptr %ptr.addr, align 8
  store ptr %base, ptr %base.addr, align 8
  %0 = load ptr, ptr %base.addr, align 8
  %1 = load ptr, ptr %ptr.addr, align 8
  %call = call i32 @_ZNK6hermes2vm11PointerBase21pointerToBasedNonNullEPKv(ptr noundef nonnull align 1 dereferenceable(1) %0, ptr noundef %1)
  %coerce.dive = getelementptr inbounds %"class.hermes::vm::BasedPointer", ptr %retval, i32 0, i32 0
  store i32 %call, ptr %coerce.dive, align 4
  %coerce.dive1 = getelementptr inbounds %"class.hermes::vm::BasedPointer", ptr %retval, i32 0, i32 0
  %2 = load i32, ptr %coerce.dive1, align 4
  ret i32 %2
}

; Function Attrs: mustprogress nounwind uwtable
define hidden noundef i32 @_ZN6hermes2vm6GCBase11getObjectIDENS0_17CompressedPointerE(ptr noundef nonnull align 8 dereferenceable(741) %this, i32 %cell.coerce) #0 align 2 {
entry:
  %cell = alloca %"class.hermes::vm::CompressedPointer", align 4
  %this.addr = alloca ptr, align 8
  %agg.tmp = alloca %"class.hermes::vm::CompressedPointer", align 4
  %coerce.dive = getelementptr inbounds %"class.hermes::vm::CompressedPointer", ptr %cell, i32 0, i32 0
  %coerce.dive1 = getelementptr inbounds %"class.hermes::vm::BasedPointer", ptr %coerce.dive, i32 0, i32 0
  store i32 %cell.coerce, ptr %coerce.dive1, align 4
  store ptr %this, ptr %this.addr, align 8
  %this2 = load ptr, ptr %this.addr, align 8
  %idTracker_ = getelementptr inbounds %"class.hermes::vm::GCBase", ptr %this2, i32 0, i32 27
  call void @llvm.memcpy.p0.p0.i64(ptr align 4 %agg.tmp, ptr align 4 %cell, i64 4, i1 false)
  %coerce.dive3 = getelementptr inbounds %"class.hermes::vm::CompressedPointer", ptr %agg.tmp, i32 0, i32 0
  %coerce.dive4 = getelementptr inbounds %"class.hermes::vm::BasedPointer", ptr %coerce.dive3, i32 0, i32 0
  %0 = load i32, ptr %coerce.dive4, align 4
  %call = call noundef i32 @_ZN6hermes2vm6GCBase9IDTracker11getObjectIDENS0_17CompressedPointerE(ptr noundef nonnull align 8 dereferenceable(192) %idTracker_, i32 %0)
  ret i32 %call
}

; Function Attrs: mustprogress nounwind uwtable
define linkonce_odr hidden i32 @_ZN6hermes2vm17CompressedPointer13encodeNonNullEPNS0_6GCCellERNS0_11PointerBaseE(ptr noundef %ptr, ptr noundef nonnull align 1 dereferenceable(1) %base) #0 comdat align 2 {
entry:
  %retval = alloca %"class.hermes::vm::CompressedPointer", align 4
  %ptr.addr = alloca ptr, align 8
  %base.addr = alloca ptr, align 8
  %agg.tmp = alloca %"class.hermes::vm::BasedPointer", align 4
  store ptr %ptr, ptr %ptr.addr, align 8
  store ptr %base, ptr %base.addr, align 8
  %0 = load ptr, ptr %ptr.addr, align 8
  %1 = load ptr, ptr %base.addr, align 8
  %call = call i32 @_ZN6hermes2vm17CompressedPointer27pointerToStorageTypeNonNullEPNS0_6GCCellERNS0_11PointerBaseE(ptr noundef %0, ptr noundef nonnull align 1 dereferenceable(1) %1)
  %coerce.dive = getelementptr inbounds %"class.hermes::vm::BasedPointer", ptr %agg.tmp, i32 0, i32 0
  store i32 %call, ptr %coerce.dive, align 4
  %coerce.dive1 = getelementptr inbounds %"class.hermes::vm::BasedPointer", ptr %agg.tmp, i32 0, i32 0
  %2 = load i32, ptr %coerce.dive1, align 4
  call void @_ZN6hermes2vm17CompressedPointerC2ENS0_12BasedPointerE(ptr noundef nonnull align 4 dereferenceable(4) %retval, i32 %2)
  %coerce.dive2 = getelementptr inbounds %"class.hermes::vm::CompressedPointer", ptr %retval, i32 0, i32 0
  %coerce.dive3 = getelementptr inbounds %"class.hermes::vm::BasedPointer", ptr %coerce.dive2, i32 0, i32 0
  %3 = load i32, ptr %coerce.dive3, align 4
  ret i32 %3
}

; Function Attrs: mustprogress nounwind uwtable
define hidden noundef i32 @_ZN6hermes2vm6GCBase11getObjectIDEPKNS0_6GCCellE(ptr noundef nonnull align 8 dereferenceable(741) %this, ptr noundef %cell) #0 align 2 {
entry:
  %this.addr = alloca ptr, align 8
  %cell.addr = alloca ptr, align 8
  %agg.tmp = alloca %"class.hermes::vm::CompressedPointer", align 4
  store ptr %this, ptr %this.addr, align 8
  store ptr %cell, ptr %cell.addr, align 8
  %this1 = load ptr, ptr %this.addr, align 8
  %0 = load ptr, ptr %cell.addr, align 8
  %pointerBase_ = getelementptr inbounds %"class.hermes::vm::GCBase", ptr %this1, i32 0, i32 7
  %1 = load ptr, ptr %pointerBase_, align 8
  %call = call i32 @_ZN6hermes2vm17CompressedPointer13encodeNonNullEPNS0_6GCCellERNS0_11PointerBaseE(ptr noundef %0, ptr noundef nonnull align 1 dereferenceable(1) %1)
  %coerce.dive = getelementptr inbounds %"class.hermes::vm::CompressedPointer", ptr %agg.tmp, i32 0, i32 0
  %coerce.dive2 = getelementptr inbounds %"class.hermes::vm::BasedPointer", ptr %coerce.dive, i32 0, i32 0
  store i32 %call, ptr %coerce.dive2, align 4
  %coerce.dive3 = getelementptr inbounds %"class.hermes::vm::CompressedPointer", ptr %agg.tmp, i32 0, i32 0
  %coerce.dive4 = getelementptr inbounds %"class.hermes::vm::BasedPointer", ptr %coerce.dive3, i32 0, i32 0
  %2 = load i32, ptr %coerce.dive4, align 4
  %call5 = call noundef i32 @_ZN6hermes2vm6GCBase11getObjectIDENS0_17CompressedPointerE(ptr noundef nonnull align 8 dereferenceable(741) %this1, i32 %2)
  ret i32 %call5
}