; Function Attrs: mustprogress nounwind uwtable
define hidden noundef i32 @_ZN6hermes2vm6GCBase11getObjectIDEPKNS0_6GCCellE(ptr noundef nonnull align 8 dereferenceable(741) %this, ptr noundef %cell) local_unnamed_addr #0 align 2 {
entry:
  %pointerBase_ = getelementptr inbounds i8, ptr %this, i64 40
  %0 = load ptr, ptr %pointerBase_, align 8
  %1 = ptrtoint ptr %cell to i64
  %2 = ptrtoint ptr %0 to i64
  %sub.i.i.i = sub i64 %1, %2
  %conv.i.i.i = trunc i64 %sub.i.i.i to i32
  %idTracker_.i = getelementptr inbounds i8, ptr %this, i64 488
  %call.i = tail call noundef i32 @_ZN6hermes2vm6GCBase9IDTracker11getObjectIDENS0_17CompressedPointerE(ptr noundef nonnull align 8 dereferenceable(192) %idTracker_.i, i32 %conv.i.i.i)
  ret i32 %call.i
}